target datalayout = "e-m:e-p270:32:32-p271:32:32-p272:64:64-i64:64-i128:128-f80:128-n8:16:32:64-S128"
target triple = "x86_64-pc-linux-gnu"

%class.stringStream = type <{ %class.outputStream, ptr, i64, i64, i8, [48 x i8], [7 x i8] }>
%class.outputStream = type { ptr, i32, i8, i32, i64, %class.TimeStamp, ptr, i64 }
%class.TimeStamp = type { i64 }

; Function Attrs: mustprogress nounwind uwtable
define hidden noundef ptr @_ZNK8Metadata18print_value_stringEv(ptr noundef nonnull align 8 dereferenceable(8) %0) #1 align 2 {
  %2 = alloca ptr, align 8
  %3 = alloca [256 x i8], align 16
  %4 = alloca %class.stringStream, align 8
  store ptr %0, ptr %2, align 8
  %5 = load ptr, ptr %2, align 8
  %6 = getelementptr inbounds [256 x i8], ptr %3, i64 0, i64 0
  call void @_ZN12stringStreamC1EPcm(ptr noundef nonnull align 8 dereferenceable(129) %4, ptr noundef %6, i64 noundef 256)
  %7 = load ptr, ptr %5, align 8
  %8 = getelementptr inbounds ptr, ptr %7, i64 11
  %9 = load ptr, ptr %8, align 8
  call void %9(ptr noundef nonnull align 8 dereferenceable(8) %5, ptr noundef %4)
  %10 = call noundef ptr @_ZNK12stringStream9as_stringEb(ptr noundef nonnull align 8 dereferenceable(129) %4, i1 noundef zeroext false)
  call void @_ZN12stringStreamD1Ev(ptr noundef nonnull align 8 dereferenceable(129) %4) #5
  ret ptr %10
}