; Function Attrs: mustprogress nounwind uwtable
define hidden noundef ptr @_ZNK8Metadata18print_value_stringEv(ptr noundef nonnull align 8 dereferenceable(8) %0) local_unnamed_addr #1 align 2 {
  %2 = alloca [256 x i8], align 16
  %3 = alloca %class.stringStream, align 8
  call void @_ZN12stringStreamC1EPcm(ptr noundef nonnull align 8 dereferenceable(129) %3, ptr noundef nonnull %2, i64 noundef 256) #5
  %4 = load ptr, ptr %0, align 8
  %5 = getelementptr inbounds i8, ptr %4, i64 88
  %6 = load ptr, ptr %5, align 8
  call void %6(ptr noundef nonnull align 8 dereferenceable(8) %0, ptr noundef nonnull %3) #5
  %7 = call noundef ptr @_ZNK12stringStream9as_stringEb(ptr noundef nonnull align 8 dereferenceable(129) %3, i1 noundef zeroext false) #5
  call void @_ZN12stringStreamD1Ev(ptr noundef nonnull align 8 dereferenceable(129) %3) #5
  ret ptr %7
}